Certificate:
    Data:
        Version: 3 (0x2)
        Serial Number: 2 (0x2)
    Signature Algorithm: sha1WithRSAEncryption
        Issuer: C=VN, ST=Hanoi, L=Hanoi, O=VHT, OU=OCS, CN=vht.com/name=server/emailAddress=chungphb@viettel.com.vn
        Validity
            Not Before: May 14 03:53:39 2021 GMT
            Not After : May 12 03:53:39 2031 GMT
        Subject: C=VN, ST=Hanoi, L=Hanoi, O=VHT, OU=OCS, CN=client/name=server/emailAddress=chungphb@viettel.com.vn
        Subject Public Key Info:
            Public Key Algorithm: rsaEncryption
                Public-Key: (4096 bit)
                Modulus:
                    00:cb:59:8a:f0:69:11:fd:28:18:5f:6d:c7:11:c9:
                    56:2f:1e:24:d7:3e:d3:97:9d:08:91:9e:e0:49:70:
                    b6:c0:33:c4:ad:0a:28:aa:79:fb:97:b4:bc:4d:9c:
                    c6:75:09:45:4c:ca:a8:57:d7:04:08:83:7a:e0:77:
                    bc:a8:9a:46:1d:52:f2:fa:1e:25:37:41:d7:e7:45:
                    51:cb:77:c4:63:8b:f5:c2:c6:0d:60:36:ae:f4:84:
                    93:fb:b2:a3:ff:22:cc:3d:a6:e9:54:72:19:93:0a:
                    d6:a2:ed:cd:ab:92:c9:81:8c:15:0d:f6:39:1e:41:
                    ba:2c:26:f8:56:29:22:f1:16:a0:79:39:76:46:a7:
                    68:d8:40:6b:e5:d7:08:50:90:83:f2:59:d4:32:69:
                    5c:99:20:c0:49:0f:87:8c:18:76:9a:59:06:7d:8b:
                    92:e0:1c:03:a7:a5:7c:1f:75:fd:f6:c8:14:49:ce:
                    4f:5c:0a:a6:65:dc:7f:71:ae:a7:11:82:d2:26:3b:
                    a2:b9:6d:88:6c:3b:61:34:cf:8b:ae:89:46:b4:3e:
                    4e:71:89:82:20:33:f0:15:8b:5c:a1:07:5e:5d:3f:
                    6f:ad:f4:c7:4d:02:3c:5a:69:30:c9:7b:e4:30:13:
                    20:c6:ff:74:14:ec:24:b3:96:8c:c7:32:9f:49:be:
                    b9:f1:8b:bc:79:17:22:16:db:7d:ed:bb:90:be:50:
                    69:b4:d5:ec:e1:14:f8:1e:b4:07:7d:c2:0f:51:ec:
                    2c:44:98:cf:b1:4c:4f:8e:77:0e:b6:5a:62:79:c6:
                    bd:fb:2c:f3:80:b7:bb:58:0e:9a:0c:c8:e5:87:8b:
                    4c:f6:cc:49:db:0c:1b:c2:3c:81:6e:3e:6d:00:ea:
                    f3:74:4f:29:15:a0:0d:f1:a3:8a:9e:c0:75:95:4e:
                    71:df:69:b6:65:9b:eb:aa:57:68:57:33:6a:50:82:
                    8e:75:80:1c:d6:36:a6:7e:66:3d:e5:39:34:5b:7e:
                    02:4e:02:96:d7:d1:93:df:86:80:a9:84:e2:d6:62:
                    26:93:ec:a6:e1:e2:dd:b1:2f:eb:9b:c8:e1:38:c8:
                    f6:d4:55:9e:09:7f:b4:2c:30:9e:45:3c:ee:3b:52:
                    72:79:c0:f1:09:27:8d:1b:26:79:11:53:6b:50:cc:
                    35:d8:7e:75:32:2b:9c:2f:01:80:f1:ce:12:18:10:
                    e9:9c:83:50:71:16:82:4a:26:00:78:19:09:ed:1e:
                    ba:0a:cc:69:46:1c:5f:d2:46:b5:fd:af:76:91:17:
                    61:f9:a4:ce:7c:a8:11:da:c2:2d:41:96:16:2e:5e:
                    b4:87:37:e6:1d:ee:04:33:a2:93:d6:8c:fe:32:13:
                    71:13:3f
                Exponent: 65537 (0x10001)
        X509v3 extensions:
            X509v3 Basic Constraints: 
                CA:FALSE
            Netscape Comment: 
                Easy-RSA Generated Certificate
            X509v3 Subject Key Identifier: 
                02:B7:9F:90:53:37:BE:5A:CA:5B:38:98:33:CB:FA:82:F5:CD:0B:6C
            X509v3 Authority Key Identifier: 
                keyid:DE:AB:40:E6:70:0A:8F:F2:5E:AB:63:94:E9:52:24:61:1F:8B:CC:2B
                DirName:/C=VN/ST=Hanoi/L=Hanoi/O=VHT/OU=OCS/CN=vht.com/name=server/emailAddress=chungphb@viettel.com.vn
                serial:CB:13:A4:8A:B6:D6:87:0E

            X509v3 Extended Key Usage: 
                TLS Web Client Authentication
            X509v3 Key Usage: 
                Digital Signature
    Signature Algorithm: sha1WithRSAEncryption
         73:90:b1:bc:ae:ea:77:99:7b:0a:d8:60:f4:81:3a:ee:1c:4a:
         f6:c1:14:12:3c:29:c5:9c:17:cf:91:b9:2e:0f:a4:9d:07:72:
         11:41:99:0f:44:c0:a1:81:c9:c1:6c:3f:c4:a5:83:0f:77:b7:
         71:4e:28:ee:97:be:aa:20:0e:10:a0:67:08:59:f7:9a:db:2d:
         a0:7a:fc:76:ab:07:98:d7:6e:4f:f0:d8:a9:27:e3:f6:1e:ee:
         09:27:64:d8:8a:8b:a3:23:51:8e:8e:8f:3e:80:4e:95:b6:61:
         85:0b:47:a8:29:d0:b0:9f:e9:e4:e7:67:00:b7:2a:da:f4:13:
         35:cd:4c:07:83:07:fd:e6:80:57:91:0b:b5:db:9a:9d:c0:54:
         8a:06:74:af:00:04:5a:44:fe:b1:29:c5:db:91:e6:0c:73:7b:
         d3:e2:01:66:d8:f7:cd:8d:ba:97:2c:da:94:bf:ec:3e:54:ec:
         b1:2c:20:5e:72:2e:33:41:38:b9:e8:c3:17:77:e9:84:4e:ae:
         56:a0:a6:75:18:73:f3:ad:a1:9b:39:fa:dd:7a:ff:a8:28:40:
         33:f5:33:a9:1d:5f:b2:68:6d:1c:22:c9:35:a6:c0:70:5e:74:
         55:2d:05:4d:d4:21:07:82:e5:00:de:a1:c2:0c:28:b4:0b:6a:
         06:1d:4e:66:fc:fc:c4:97:5c:49:12:61:20:36:ef:40:f6:ad:
         87:be:2c:b3:f2:82:50:46:aa:ac:4c:a8:fd:c1:e8:cd:dd:db:
         76:8a:4a:03:fe:5c:4d:0d:dc:6c:08:c8:12:bb:8d:89:40:9e:
         1c:f4:0f:8a:8d:a7:ca:02:a0:d4:2d:ce:6e:0e:80:2c:ab:35:
         6f:05:df:12:34:79:c7:c8:1f:81:b8:71:fe:ac:c7:f4:07:73:
         ac:9c:9d:a7:28:b0:ae:25:4c:5c:27:d3:62:9c:6b:a6:31:4e:
         30:06:10:5a:56:9b:6a:35:fa:58:bb:a3:47:91:c0:26:71:9b:
         9e:52:78:95:b0:b1:98:ef:c1:fd:f0:e7:ab:19:c8:c2:47:8d:
         00:e4:ea:5b:e5:68:8c:e9:6a:f1:1a:72:08:84:a0:48:92:a8:
         68:e2:59:84:f0:07:46:cd:e8:30:58:41:b1:e7:79:22:cf:d6:
         40:e9:e7:80:0b:2e:70:ce:cf:50:0e:69:85:f2:cb:19:cb:0b:
         55:50:7b:23:70:e2:af:ba:d8:db:58:94:aa:93:8f:55:4f:d1:
         e0:fa:25:72:9b:57:22:7e:71:bf:fe:1b:9a:b8:ec:cd:37:94:
         d3:44:9b:83:23:36:95:7e:19:96:aa:cb:1f:6d:be:dc:6f:4e:
         d8:bd:32:e3:89:6a:43:ea
-----BEGIN CERTIFICATE-----
MIIG8TCCBNmgAwIBAgIBAjANBgkqhkiG9w0BAQUFADCBlDELMAkGA1UEBhMCVk4x
DjAMBgNVBAgTBUhhbm9pMQ4wDAYDVQQHEwVIYW5vaTEMMAoGA1UEChMDVkhUMQww
CgYDVQQLEwNPQ1MxEDAOBgNVBAMTB3ZodC5jb20xDzANBgNVBCkTBnNlcnZlcjEm
MCQGCSqGSIb3DQEJARYXY2h1bmdwaGJAdmlldHRlbC5jb20udm4wHhcNMjEwNTE0
MDM1MzM5WhcNMzEwNTEyMDM1MzM5WjCBkzELMAkGA1UEBhMCVk4xDjAMBgNVBAgT
BUhhbm9pMQ4wDAYDVQQHEwVIYW5vaTEMMAoGA1UEChMDVkhUMQwwCgYDVQQLEwNP
Q1MxDzANBgNVBAMTBmNsaWVudDEPMA0GA1UEKRMGc2VydmVyMSYwJAYJKoZIhvcN
AQkBFhdjaHVuZ3BoYkB2aWV0dGVsLmNvbS52bjCCAiIwDQYJKoZIhvcNAQEBBQAD
ggIPADCCAgoCggIBAMtZivBpEf0oGF9txxHJVi8eJNc+05edCJGe4ElwtsAzxK0K
KKp5+5e0vE2cxnUJRUzKqFfXBAiDeuB3vKiaRh1S8voeJTdB1+dFUct3xGOL9cLG
DWA2rvSEk/uyo/8izD2m6VRyGZMK1qLtzauSyYGMFQ32OR5Buiwm+FYpIvEWoHk5
dkanaNhAa+XXCFCQg/JZ1DJpXJkgwEkPh4wYdppZBn2LkuAcA6elfB91/fbIFEnO
T1wKpmXcf3GupxGC0iY7orltiGw7YTTPi66JRrQ+TnGJgiAz8BWLXKEHXl0/b630
x00CPFppMMl75DATIMb/dBTsJLOWjMcyn0m+ufGLvHkXIhbbfe27kL5QabTV7OEU
+B60B33CD1HsLESYz7FMT453DrZaYnnGvfss84C3u1gOmgzI5YeLTPbMSdsMG8I8
gW4+bQDq83RPKRWgDfGjip7AdZVOcd9ptmWb66pXaFczalCCjnWAHNY2pn5mPeU5
NFt+Ak4CltfRk9+GgKmE4tZiJpPspuHi3bEv65vI4TjI9tRVngl/tCwwnkU87jtS
cnnA8QknjRsmeRFTa1DMNdh+dTIrnC8BgPHOEhgQ6ZyDUHEWgkomAHgZCe0eugrM
aUYcX9JGtf2vdpEXYfmkznyoEdrCLUGWFi5etIc35h3uBDOik9aM/jITcRM/AgMB
AAGjggFLMIIBRzAJBgNVHRMEAjAAMC0GCWCGSAGG+EIBDQQgFh5FYXN5LVJTQSBH
ZW5lcmF0ZWQgQ2VydGlmaWNhdGUwHQYDVR0OBBYEFAK3n5BTN75ayls4mDPL+oL1
zQtsMIHJBgNVHSMEgcEwgb6AFN6rQOZwCo/yXqtjlOlSJGEfi8wroYGapIGXMIGU
MQswCQYDVQQGEwJWTjEOMAwGA1UECBMFSGFub2kxDjAMBgNVBAcTBUhhbm9pMQww
CgYDVQQKEwNWSFQxDDAKBgNVBAsTA09DUzEQMA4GA1UEAxMHdmh0LmNvbTEPMA0G
A1UEKRMGc2VydmVyMSYwJAYJKoZIhvcNAQkBFhdjaHVuZ3BoYkB2aWV0dGVsLmNv
bS52boIJAMsTpIq21ocOMBMGA1UdJQQMMAoGCCsGAQUFBwMCMAsGA1UdDwQEAwIH
gDANBgkqhkiG9w0BAQUFAAOCAgEAc5CxvK7qd5l7Cthg9IE67hxK9sEUEjwpxZwX
z5G5Lg+knQdyEUGZD0TAoYHJwWw/xKWDD3e3cU4o7pe+qiAOEKBnCFn3mtstoHr8
dqsHmNduT/DYqSfj9h7uCSdk2IqLoyNRjo6PPoBOlbZhhQtHqCnQsJ/p5OdnALcq
2vQTNc1MB4MH/eaAV5ELtduancBUigZ0rwAEWkT+sSnF25HmDHN70+IBZtj3zY26
lyzalL/sPlTssSwgXnIuM0E4uejDF3fphE6uVqCmdRhz862hmzn63Xr/qChAM/Uz
qR1fsmhtHCLJNabAcF50VS0FTdQhB4LlAN6hwgwotAtqBh1OZvz8xJdcSRJhIDbv
QPath74ss/KCUEaqrEyo/cHozd3bdopKA/5cTQ3cbAjIEruNiUCeHPQPio2nygKg
1C3Obg6ALKs1bwXfEjR5x8gfgbhx/qzH9AdzrJydpyiwriVMXCfTYpxrpjFOMAYQ
WlabajX6WLujR5HAJnGbnlJ4lbCxmO/B/fDnqxnIwkeNAOTqW+VojOlq8RpyCISg
SJKoaOJZhPAHRs3oMFhBsed5Is/WQOnngAsucM7PUA5phfLLGcsLVVB7I3Dir7rY
21iUqpOPVU/R4PolcptXIn5xv/4bmrjszTeU00SbgyM2lX4ZlqrLH22+3G9O2L0y
44lqQ+o=
-----END CERTIFICATE-----
